target datalayout = "e-m:e-p270:32:32-p271:32:32-p272:64:64-i64:64-i128:128-f80:128-n8:16:32:64-S128"
target triple = "x86_64-pc-linux-gnu"

%struct.ForEachState = type { ptr, i32 }
%struct.FunctionCallInfoBaseData = type { ptr, ptr, ptr, i32, i8, i16, [0 x %struct.NullableDatum] }
%struct.NullableDatum = type { i64, i8 }
%struct.DictSimple = type { %struct.StopList, i8 }
%struct.StopList = type { i32, ptr }
%struct.List = type { i32, i32, i32, ptr, [0 x %union.ListCell] }
%union.ListCell = type { ptr }
%struct.DefElem = type { i32, ptr, ptr, ptr, i32, i32 }
%struct.TSLexeme = type { i16, i16, ptr }

@.str = private unnamed_addr constant [10 x i8] c"stopwords\00", align 1
@.str.1 = private unnamed_addr constant [30 x i8] c"multiple StopWords parameters\00", align 1
@.str.2 = private unnamed_addr constant [14 x i8] c"dict_simple.c\00", align 1
@__func__.dsimple_init = private unnamed_addr constant [13 x i8] c"dsimple_init\00", align 1
@.str.3 = private unnamed_addr constant [7 x i8] c"accept\00", align 1
@.str.4 = private unnamed_addr constant [27 x i8] c"multiple Accept parameters\00", align 1
@.str.5 = private unnamed_addr constant [47 x i8] c"unrecognized simple dictionary parameter: \22%s\22\00", align 1

; Function Attrs: nounwind uwtable
define dso_local i64 @dsimple_init(ptr noundef %0) #0 {
  %2 = alloca ptr, align 8
  %3 = alloca ptr, align 8
  %4 = alloca ptr, align 8
  %5 = alloca i8, align 1
  %6 = alloca i8, align 1
  %7 = alloca ptr, align 8
  %8 = alloca %struct.ForEachState, align 8
  %9 = alloca ptr, align 8
  store ptr %0, ptr %2, align 8
  call void @llvm.lifetime.start.p0(i64 8, ptr %3) #7
  %10 = load ptr, ptr %2, align 8
  %11 = getelementptr inbounds nuw %struct.FunctionCallInfoBaseData, ptr %10, i32 0, i32 6
  %12 = getelementptr inbounds [0 x %struct.NullableDatum], ptr %11, i64 0, i64 0
  %13 = getelementptr inbounds nuw %struct.NullableDatum, ptr %12, i32 0, i32 0
  %14 = load i64, ptr %13, align 8
  %15 = call ptr @DatumGetPointer(i64 noundef %14)
  store ptr %15, ptr %3, align 8
  call void @llvm.lifetime.start.p0(i64 8, ptr %4) #7
  %16 = call ptr @palloc0(i64 noundef 24)
  store ptr %16, ptr %4, align 8
  call void @llvm.lifetime.start.p0(i64 1, ptr %5) #7
  store i8 0, ptr %5, align 1
  call void @llvm.lifetime.start.p0(i64 1, ptr %6) #7
  store i8 0, ptr %6, align 1
  call void @llvm.lifetime.start.p0(i64 8, ptr %7) #7
  %17 = load ptr, ptr %4, align 8
  %18 = getelementptr inbounds nuw %struct.DictSimple, ptr %17, i32 0, i32 1
  store i8 1, ptr %18, align 8
  call void @llvm.lifetime.start.p0(i64 16, ptr %8) #7
  %19 = getelementptr inbounds nuw %struct.ForEachState, ptr %8, i32 0, i32 0
  %20 = load ptr, ptr %3, align 8
  store ptr %20, ptr %19, align 8
  %21 = getelementptr inbounds nuw %struct.ForEachState, ptr %8, i32 0, i32 1
  store i32 0, ptr %21, align 8
  %22 = getelementptr i8, ptr %8, i64 12
  call void @llvm.memset.p0.i64(ptr align 4 %22, i8 0, i64 4, i1 false)
  br label %23

23:                                               ; preds = %121, %1
  %24 = getelementptr inbounds nuw %struct.ForEachState, ptr %8, i32 0, i32 0
  %25 = load ptr, ptr %24, align 8
  %26 = icmp ne ptr %25, null
  br i1 %26, label %27, label %44

27:                                               ; preds = %23
  %28 = getelementptr inbounds nuw %struct.ForEachState, ptr %8, i32 0, i32 1
  %29 = load i32, ptr %28, align 8
  %30 = getelementptr inbounds nuw %struct.ForEachState, ptr %8, i32 0, i32 0
  %31 = load ptr, ptr %30, align 8
  %32 = getelementptr inbounds nuw %struct.List, ptr %31, i32 0, i32 1
  %33 = load i32, ptr %32, align 4
  %34 = icmp slt i32 %29, %33
  br i1 %34, label %35, label %44

35:                                               ; preds = %27
  %36 = getelementptr inbounds nuw %struct.ForEachState, ptr %8, i32 0, i32 0
  %37 = load ptr, ptr %36, align 8
  %38 = getelementptr inbounds nuw %struct.List, ptr %37, i32 0, i32 3
  %39 = load ptr, ptr %38, align 8
  %40 = getelementptr inbounds nuw %struct.ForEachState, ptr %8, i32 0, i32 1
  %41 = load i32, ptr %40, align 8
  %42 = sext i32 %41 to i64
  %43 = getelementptr inbounds %union.ListCell, ptr %39, i64 %42
  store ptr %43, ptr %7, align 8
  br label %45

44:                                               ; preds = %27, %23
  store ptr null, ptr %7, align 8
  br label %45

45:                                               ; preds = %44, %35
  %46 = phi i32 [ 1, %35 ], [ 0, %44 ]
  %47 = icmp ne i32 %46, 0
  br i1 %47, label %49, label %48

48:                                               ; preds = %45
  call void @llvm.lifetime.end.p0(i64 16, ptr %8) #7
  br label %125

49:                                               ; preds = %45
  call void @llvm.lifetime.start.p0(i64 8, ptr %9) #7
  %50 = load ptr, ptr %7, align 8
  %51 = load ptr, ptr %50, align 8
  store ptr %51, ptr %9, align 8
  %52 = load ptr, ptr %9, align 8
  %53 = getelementptr inbounds nuw %struct.DefElem, ptr %52, i32 0, i32 2
  %54 = load ptr, ptr %53, align 8
  %55 = call i32 @strcmp(ptr noundef %54, ptr noundef @.str) #8
  %56 = icmp eq i32 %55, 0
  br i1 %56, label %57, label %77

57:                                               ; preds = %49
  %58 = load i8, ptr %5, align 1, !range !4, !noundef !5
  %59 = trunc i8 %58 to i1
  br i1 %59, label %60, label %72

60:                                               ; preds = %57
  br label %61

61:                                               ; preds = %60
  br i1 true, label %62, label %64

62:                                               ; preds = %61
  %63 = call zeroext i1 @errstart_cold(i32 noundef 21, ptr noundef null) #9
  br i1 %63, label %66, label %69

64:                                               ; preds = %61
  %65 = call zeroext i1 @errstart(i32 noundef 21, ptr noundef null)
  br i1 %65, label %66, label %69

66:                                               ; preds = %64, %62
  %67 = call i32 @errcode(i32 noundef 50856066)
  %68 = call i32 (ptr, ...) @errmsg(ptr noundef @.str.1)
  call void @errfinish(ptr noundef @.str.2, i32 noundef 50, ptr noundef @__func__.dsimple_init)
  br label %69

69:                                               ; preds = %66, %64, %62
  unreachable

70:                                               ; No predecessors!
  br label %71

71:                                               ; preds = %70
  br label %72

72:                                               ; preds = %71, %57
  %73 = load ptr, ptr %9, align 8
  %74 = call ptr @defGetString(ptr noundef %73)
  %75 = load ptr, ptr %4, align 8
  %76 = getelementptr inbounds nuw %struct.DictSimple, ptr %75, i32 0, i32 0
  call void @readstoplist(ptr noundef %74, ptr noundef %76, ptr noundef @str_tolower)
  store i8 1, ptr %5, align 1
  br label %120

77:                                               ; preds = %49
  %78 = load ptr, ptr %9, align 8
  %79 = getelementptr inbounds nuw %struct.DefElem, ptr %78, i32 0, i32 2
  %80 = load ptr, ptr %79, align 8
  %81 = call i32 @strcmp(ptr noundef %80, ptr noundef @.str.3) #8
  %82 = icmp eq i32 %81, 0
  br i1 %82, label %83, label %104

83:                                               ; preds = %77
  %84 = load i8, ptr %6, align 1, !range !4, !noundef !5
  %85 = trunc i8 %84 to i1
  br i1 %85, label %86, label %98

86:                                               ; preds = %83
  br label %87

87:                                               ; preds = %86
  br i1 true, label %88, label %90

88:                                               ; preds = %87
  %89 = call zeroext i1 @errstart_cold(i32 noundef 21, ptr noundef null) #9
  br i1 %89, label %92, label %95

90:                                               ; preds = %87
  %91 = call zeroext i1 @errstart(i32 noundef 21, ptr noundef null)
  br i1 %91, label %92, label %95

92:                                               ; preds = %90, %88
  %93 = call i32 @errcode(i32 noundef 50856066)
  %94 = call i32 (ptr, ...) @errmsg(ptr noundef @.str.4)
  call void @errfinish(ptr noundef @.str.2, i32 noundef 59, ptr noundef @__func__.dsimple_init)
  br label %95

95:                                               ; preds = %92, %90, %88
  unreachable

96:                                               ; No predecessors!
  br label %97

97:                                               ; preds = %96
  br label %98

98:                                               ; preds = %97, %83
  %99 = load ptr, ptr %9, align 8
  %100 = call zeroext i1 @defGetBoolean(ptr noundef %99)
  %101 = load ptr, ptr %4, align 8
  %102 = getelementptr inbounds nuw %struct.DictSimple, ptr %101, i32 0, i32 1
  %103 = zext i1 %100 to i8
  store i8 %103, ptr %102, align 8
  store i8 1, ptr %6, align 1
  br label %119

104:                                              ; preds = %77
  br label %105

105:                                              ; preds = %104
  br i1 true, label %106, label %108

106:                                              ; preds = %105
  %107 = call zeroext i1 @errstart_cold(i32 noundef 21, ptr noundef null) #9
  br i1 %107, label %110, label %116

108:                                              ; preds = %105
  %109 = call zeroext i1 @errstart(i32 noundef 21, ptr noundef null)
  br i1 %109, label %110, label %116

110:                                              ; preds = %108, %106
  %111 = call i32 @errcode(i32 noundef 50856066)
  %112 = load ptr, ptr %9, align 8
  %113 = getelementptr inbounds nuw %struct.DefElem, ptr %112, i32 0, i32 2
  %114 = load ptr, ptr %113, align 8
  %115 = call i32 (ptr, ...) @errmsg(ptr noundef @.str.5, ptr noundef %114)
  call void @errfinish(ptr noundef @.str.2, i32 noundef 68, ptr noundef @__func__.dsimple_init)
  br label %116

116:                                              ; preds = %110, %108, %106
  unreachable

117:                                              ; No predecessors!
  br label %118

118:                                              ; preds = %117
  br label %119

119:                                              ; preds = %118, %98
  br label %120

120:                                              ; preds = %119, %72
  call void @llvm.lifetime.end.p0(i64 8, ptr %9) #7
  br label %121

121:                                              ; preds = %120
  %122 = getelementptr inbounds nuw %struct.ForEachState, ptr %8, i32 0, i32 1
  %123 = load i32, ptr %122, align 8
  %124 = add i32 %123, 1
  store i32 %124, ptr %122, align 8
  br label %23, !llvm.loop !6

125:                                              ; preds = %48
  %126 = load ptr, ptr %4, align 8
  %127 = call i64 @PointerGetDatum(ptr noundef %126)
  call void @llvm.lifetime.end.p0(i64 8, ptr %7) #7
  call void @llvm.lifetime.end.p0(i64 1, ptr %6) #7
  call void @llvm.lifetime.end.p0(i64 1, ptr %5) #7
  call void @llvm.lifetime.end.p0(i64 8, ptr %4) #7
  call void @llvm.lifetime.end.p0(i64 8, ptr %3) #7
  ret i64 %127
}

; Function Attrs: nocallback nofree nosync nounwind willreturn memory(argmem: readwrite)
declare void @llvm.lifetime.start.p0(i64 immarg, ptr captures(none)) #1

; Function Attrs: inlinehint nounwind uwtable
define internal ptr @DatumGetPointer(i64 noundef %0) #2 {
  %2 = alloca i64, align 8
  store i64 %0, ptr %2, align 8
  %3 = load i64, ptr %2, align 8
  %4 = inttoptr i64 %3 to ptr
  ret ptr %4
}

declare ptr @palloc0(i64 noundef) #3

; Function Attrs: nocallback nofree nounwind willreturn memory(argmem: write)
declare void @llvm.memset.p0.i64(ptr writeonly captures(none), i8, i64, i1 immarg) #4

; Function Attrs: nounwind willreturn memory(read)
declare i32 @strcmp(ptr noundef, ptr noundef) #5

; Function Attrs: cold
declare zeroext i1 @errstart_cold(i32 noundef, ptr noundef) #6

declare zeroext i1 @errstart(i32 noundef, ptr noundef) #3

declare i32 @errcode(i32 noundef) #3

declare i32 @errmsg(ptr noundef, ...) #3

declare void @errfinish(ptr noundef, i32 noundef, ptr noundef) #3

declare void @readstoplist(ptr noundef, ptr noundef, ptr noundef) #3

declare ptr @defGetString(ptr noundef) #3

declare ptr @str_tolower(ptr noundef, i64 noundef, i32 noundef) #3

declare zeroext i1 @defGetBoolean(ptr noundef) #3

; Function Attrs: nocallback nofree nosync nounwind willreturn memory(argmem: readwrite)
declare void @llvm.lifetime.end.p0(i64 immarg, ptr captures(none)) #1

; Function Attrs: inlinehint nounwind uwtable
define internal i64 @PointerGetDatum(ptr noundef %0) #2 {
  %2 = alloca ptr, align 8
  store ptr %0, ptr %2, align 8
  %3 = load ptr, ptr %2, align 8
  %4 = ptrtoint ptr %3 to i64
  ret i64 %4
}

; Function Attrs: nounwind uwtable
define dso_local i64 @dsimple_lexize(ptr noundef %0) #0 {
  %2 = alloca i64, align 8
  %3 = alloca ptr, align 8
  %4 = alloca ptr, align 8
  %5 = alloca ptr, align 8
  %6 = alloca i32, align 4
  %7 = alloca ptr, align 8
  %8 = alloca ptr, align 8
  %9 = alloca i32, align 4
  store ptr %0, ptr %3, align 8
  call void @llvm.lifetime.start.p0(i64 8, ptr %4) #7
  %10 = load ptr, ptr %3, align 8
  %11 = getelementptr inbounds nuw %struct.FunctionCallInfoBaseData, ptr %10, i32 0, i32 6
  %12 = getelementptr inbounds [0 x %struct.NullableDatum], ptr %11, i64 0, i64 0
  %13 = getelementptr inbounds nuw %struct.NullableDatum, ptr %12, i32 0, i32 0
  %14 = load i64, ptr %13, align 8
  %15 = call ptr @DatumGetPointer(i64 noundef %14)
  store ptr %15, ptr %4, align 8
  call void @llvm.lifetime.start.p0(i64 8, ptr %5) #7
  %16 = load ptr, ptr %3, align 8
  %17 = getelementptr inbounds nuw %struct.FunctionCallInfoBaseData, ptr %16, i32 0, i32 6
  %18 = getelementptr inbounds [0 x %struct.NullableDatum], ptr %17, i64 0, i64 1
  %19 = getelementptr inbounds nuw %struct.NullableDatum, ptr %18, i32 0, i32 0
  %20 = load i64, ptr %19, align 8
  %21 = call ptr @DatumGetPointer(i64 noundef %20)
  store ptr %21, ptr %5, align 8
  call void @llvm.lifetime.start.p0(i64 4, ptr %6) #7
  %22 = load ptr, ptr %3, align 8
  %23 = getelementptr inbounds nuw %struct.FunctionCallInfoBaseData, ptr %22, i32 0, i32 6
  %24 = getelementptr inbounds [0 x %struct.NullableDatum], ptr %23, i64 0, i64 2
  %25 = getelementptr inbounds nuw %struct.NullableDatum, ptr %24, i32 0, i32 0
  %26 = load i64, ptr %25, align 8
  %27 = call i32 @DatumGetInt32(i64 noundef %26)
  store i32 %27, ptr %6, align 4
  call void @llvm.lifetime.start.p0(i64 8, ptr %7) #7
  call void @llvm.lifetime.start.p0(i64 8, ptr %8) #7
  %28 = load ptr, ptr %5, align 8
  %29 = load i32, ptr %6, align 4
  %30 = sext i32 %29 to i64
  %31 = call ptr @str_tolower(ptr noundef %28, i64 noundef %30, i32 noundef 100)
  store ptr %31, ptr %7, align 8
  %32 = load ptr, ptr %7, align 8
  %33 = load i8, ptr %32, align 1
  %34 = sext i8 %33 to i32
  %35 = icmp eq i32 %34, 0
  br i1 %35, label %41, label %36

36:                                               ; preds = %1
  %37 = load ptr, ptr %4, align 8
  %38 = getelementptr inbounds nuw %struct.DictSimple, ptr %37, i32 0, i32 0
  %39 = load ptr, ptr %7, align 8
  %40 = call zeroext i1 @searchstoplist(ptr noundef %38, ptr noundef %39)
  br i1 %40, label %41, label %46

41:                                               ; preds = %36, %1
  %42 = load ptr, ptr %7, align 8
  call void @pfree(ptr noundef %42)
  %43 = call ptr @palloc0(i64 noundef 32)
  store ptr %43, ptr %8, align 8
  %44 = load ptr, ptr %8, align 8
  %45 = call i64 @PointerGetDatum(ptr noundef %44)
  store i64 %45, ptr %2, align 8
  store i32 1, ptr %9, align 4
  br label %62

46:                                               ; preds = %36
  %47 = load ptr, ptr %4, align 8
  %48 = getelementptr inbounds nuw %struct.DictSimple, ptr %47, i32 0, i32 1
  %49 = load i8, ptr %48, align 8, !range !4, !noundef !5
  %50 = trunc i8 %49 to i1
  br i1 %50, label %51, label %59

51:                                               ; preds = %46
  %52 = call ptr @palloc0(i64 noundef 32)
  store ptr %52, ptr %8, align 8
  %53 = load ptr, ptr %7, align 8
  %54 = load ptr, ptr %8, align 8
  %55 = getelementptr inbounds %struct.TSLexeme, ptr %54, i64 0
  %56 = getelementptr inbounds nuw %struct.TSLexeme, ptr %55, i32 0, i32 2
  store ptr %53, ptr %56, align 8
  %57 = load ptr, ptr %8, align 8
  %58 = call i64 @PointerGetDatum(ptr noundef %57)
  store i64 %58, ptr %2, align 8
  store i32 1, ptr %9, align 4
  br label %62

59:                                               ; preds = %46
  %60 = load ptr, ptr %7, align 8
  call void @pfree(ptr noundef %60)
  %61 = call i64 @PointerGetDatum(ptr noundef null)
  store i64 %61, ptr %2, align 8
  store i32 1, ptr %9, align 4
  br label %62

62:                                               ; preds = %59, %51, %41
  call void @llvm.lifetime.end.p0(i64 8, ptr %8) #7
  call void @llvm.lifetime.end.p0(i64 8, ptr %7) #7
  call void @llvm.lifetime.end.p0(i64 4, ptr %6) #7
  call void @llvm.lifetime.end.p0(i64 8, ptr %5) #7
  call void @llvm.lifetime.end.p0(i64 8, ptr %4) #7
  %63 = load i64, ptr %2, align 8
  ret i64 %63
}

; Function Attrs: inlinehint nounwind uwtable
define internal i32 @DatumGetInt32(i64 noundef %0) #2 {
  %2 = alloca i64, align 8
  store i64 %0, ptr %2, align 8
  %3 = load i64, ptr %2, align 8
  %4 = trunc i64 %3 to i32
  ret i32 %4
}

declare zeroext i1 @searchstoplist(ptr noundef, ptr noundef) #3

declare void @pfree(ptr noundef) #3


!llvm.module.flags = !{!0, !1, !2, !3}

!0 = !{i32 1, !"wchar_size", i32 4}
!1 = !{i32 8, !"PIC Level", i32 2}
!2 = !{i32 7, !"PIE Level", i32 2}
!3 = !{i32 7, !"uwtable", i32 2}
!4 = !{i8 0, i8 2}
!5 = !{}
!6 = distinct !{!6, !7}
!7 = !{!"llvm.loop.mustprogress"}
